; Function Attrs: nounwind uwtable
define internal range(i32 -1, 1) i32 @H5ES__close_failed_cb(ptr noundef %0, ptr noundef %1) #0 {
  %3 = load i8, ptr @H5ES_init_g, align 1, !tbaa !3, !range !7, !noundef !8
  %4 = trunc nuw i8 %3 to i1
  %5 = load i8, ptr @H5_libterm_g, align 1, !range !7
  %6 = trunc nuw i8 %5 to i1
  %7 = xor i1 %6, true
  %8 = select i1 %4, i1 true, i1 %7
  br i1 %8, label %9, label %17, !prof !9

9:                                                ; preds = %2
  %10 = getelementptr inbounds nuw i8, ptr %1, i64 72
  tail call void @H5ES__list_remove(ptr noundef nonnull %10, ptr noundef %0) #5
  %11 = tail call i32 @H5ES__event_free(ptr noundef %0) #5
  %12 = icmp slt i32 %11, 0
  br i1 %12, label %13, label %17

13:                                               ; preds = %9
  %14 = load i64, ptr @H5E_EVENTSET_g, align 8, !tbaa !10
  %15 = load i64, ptr @H5E_CANTRELEASE_g, align 8, !tbaa !10
  %16 = tail call i32 (ptr, ptr, i32, i64, i64, ptr, ...) @H5E_printf_stack(ptr noundef nonnull @.str, ptr noundef nonnull @__func__.H5ES__close_failed_cb, i32 noundef 1000, i64 noundef %14, i64 noundef %15, ptr noundef nonnull @.str.35) #5
  br label %17

17:                                               ; preds = %13, %9, %2
  %.0 = phi i32 [ -1, %13 ], [ 0, %9 ], [ 0, %2 ]
  ret i32 %.0
}